target datalayout = "e-m:e-p270:32:32-p271:32:32-p272:64:64-i64:64-i128:128-f80:128-n8:16:32:64-S128"
target triple = "x86_64-pc-linux-gnu"

%struct.jv = type { i8, i8, i16, i32, %union.anon }
%union.anon = type { ptr }
%struct.jv_refcnt = type { i32 }
%struct.jvp_string = type { %struct.jv_refcnt, i32, i32, i32, [0 x i8] }

; Function Attrs: nounwind uwtable
define internal ptr @jvp_string_alloc(i32 noundef %0) #0 {
  %2 = alloca i32, align 4
  %3 = alloca ptr, align 8
  store i32 %0, ptr %2, align 4, !tbaa !10
  call void @llvm.lifetime.start.p0(i64 8, ptr %3) #11
  %4 = load i32, ptr %2, align 4, !tbaa !10
  %5 = zext i32 %4 to i64
  %6 = add i64 16, %5
  %7 = add i64 %6, 1
  %8 = call ptr @jv_mem_alloc(i64 noundef %7)
  store ptr %8, ptr %3, align 8, !tbaa !14
  %9 = load ptr, ptr %3, align 8, !tbaa !14
  %10 = getelementptr inbounds nuw %struct.jvp_string, ptr %9, i32 0, i32 0
  %11 = getelementptr inbounds nuw %struct.jv_refcnt, ptr %10, i32 0, i32 0
  store i32 1, ptr %11, align 4, !tbaa !68
  %12 = load i32, ptr %2, align 4, !tbaa !10
  %13 = load ptr, ptr %3, align 8, !tbaa !14
  %14 = getelementptr inbounds nuw %struct.jvp_string, ptr %13, i32 0, i32 3
  store i32 %12, ptr %14, align 4, !tbaa !10
  %15 = load ptr, ptr %3, align 8, !tbaa !14
  call void @llvm.lifetime.end.p0(i64 8, ptr %3) #11
  ret ptr %15
}

; Function Attrs: nounwind uwtable
define internal { i64, ptr } @jvp_string_copy_replace_bad(ptr noundef %0, i32 noundef %1) #0 {
  %3 = alloca %struct.jv, align 8
  %4 = alloca ptr, align 8
  %5 = alloca i32, align 4
  %6 = alloca ptr, align 8
  %7 = alloca ptr, align 8
  %8 = alloca i32, align 4
  %9 = alloca ptr, align 8
  %10 = alloca ptr, align 8
  %11 = alloca i32, align 4
  store ptr %0, ptr %4, align 8, !tbaa !30
  store i32 %1, ptr %5, align 4, !tbaa !10
  call void @llvm.lifetime.start.p0(i64 8, ptr %6) #11
  %12 = load ptr, ptr %4, align 8, !tbaa !30
  %13 = load i32, ptr %5, align 4, !tbaa !10
  %14 = zext i32 %13 to i64
  %15 = getelementptr inbounds nuw i8, ptr %12, i64 %14
  store ptr %15, ptr %6, align 8, !tbaa !30
  call void @llvm.lifetime.start.p0(i64 8, ptr %7) #11
  %16 = load ptr, ptr %4, align 8, !tbaa !30
  store ptr %16, ptr %7, align 8, !tbaa !30
  call void @llvm.lifetime.start.p0(i64 4, ptr %8) #11
  %17 = load i32, ptr %5, align 4, !tbaa !10
  %18 = mul i32 %17, 3
  %19 = add i32 %18, 1
  store i32 %19, ptr %8, align 4, !tbaa !10
  call void @llvm.lifetime.start.p0(i64 8, ptr %9) #11
  %20 = load i32, ptr %8, align 4, !tbaa !10
  %21 = call ptr @jvp_string_alloc(i32 noundef %20)
  store ptr %21, ptr %9, align 8, !tbaa !14
  call void @llvm.lifetime.start.p0(i64 8, ptr %10) #11
  %22 = load ptr, ptr %9, align 8, !tbaa !14
  %23 = getelementptr inbounds nuw %struct.jvp_string, ptr %22, i32 0, i32 4
  %24 = getelementptr inbounds [0 x i8], ptr %23, i64 0, i64 0
  store ptr %24, ptr %10, align 8, !tbaa !30
  call void @llvm.lifetime.start.p0(i64 4, ptr %11) #11
  store i32 0, ptr %11, align 4, !tbaa !10
  br label %25

25:                                               ; preds = %34, %2
  %26 = load ptr, ptr %7, align 8, !tbaa !30
  %27 = load ptr, ptr %6, align 8, !tbaa !30
  %28 = call ptr @jvp_utf8_next(ptr noundef %26, ptr noundef %27, ptr noundef %11)
  store ptr %28, ptr %7, align 8, !tbaa !30
  %29 = icmp ne ptr %28, null
  br i1 %29, label %30, label %41

30:                                               ; preds = %25
  %31 = load i32, ptr %11, align 4, !tbaa !10
  %32 = icmp eq i32 %31, -1
  br i1 %32, label %33, label %34

33:                                               ; preds = %30
  store i32 65533, ptr %11, align 4, !tbaa !10
  br label %34

34:                                               ; preds = %33, %30
  %35 = load i32, ptr %11, align 4, !tbaa !10
  %36 = load ptr, ptr %10, align 8, !tbaa !30
  %37 = call i32 @jvp_utf8_encode(i32 noundef %35, ptr noundef %36)
  %38 = load ptr, ptr %10, align 8, !tbaa !30
  %39 = sext i32 %37 to i64
  %40 = getelementptr inbounds i8, ptr %38, i64 %39
  store ptr %40, ptr %10, align 8, !tbaa !30
  br label %25, !llvm.loop !55

41:                                               ; preds = %25
  %42 = load ptr, ptr %10, align 8, !tbaa !30
  %43 = load ptr, ptr %9, align 8, !tbaa !14
  %44 = getelementptr inbounds nuw %struct.jvp_string, ptr %43, i32 0, i32 4
  %45 = getelementptr inbounds [0 x i8], ptr %44, i64 0, i64 0
  %46 = ptrtoint ptr %42 to i64
  %47 = ptrtoint ptr %45 to i64
  %48 = sub i64 %46, %47
  %49 = trunc i64 %48 to i32
  store i32 %49, ptr %5, align 4, !tbaa !10
  %50 = load ptr, ptr %9, align 8, !tbaa !14
  %51 = getelementptr inbounds nuw %struct.jvp_string, ptr %50, i32 0, i32 4
  %52 = load i32, ptr %5, align 4, !tbaa !10
  %53 = zext i32 %52 to i64
  %54 = getelementptr inbounds nuw [0 x i8], ptr %51, i64 0, i64 %53
  store i8 0, ptr %54, align 1, !tbaa !12
  %55 = load i32, ptr %5, align 4, !tbaa !10
  %56 = shl i32 %55, 1
  %57 = load ptr, ptr %9, align 8, !tbaa !14
  %58 = getelementptr inbounds nuw %struct.jvp_string, ptr %57, i32 0, i32 2
  store i32 %56, ptr %58, align 4, !tbaa !10
  %59 = getelementptr inbounds nuw %struct.jv, ptr %3, i32 0, i32 0
  store i8 -123, ptr %59, align 8, !tbaa !4
  %60 = getelementptr inbounds nuw %struct.jv, ptr %3, i32 0, i32 1
  store i8 0, ptr %60, align 1, !tbaa !17
  %61 = getelementptr inbounds nuw %struct.jv, ptr %3, i32 0, i32 2
  store i16 0, ptr %61, align 2, !tbaa !18
  %62 = getelementptr inbounds nuw %struct.jv, ptr %3, i32 0, i32 3
  store i32 0, ptr %62, align 4, !tbaa !19
  %63 = getelementptr inbounds nuw %struct.jv, ptr %3, i32 0, i32 4
  %64 = load ptr, ptr %9, align 8, !tbaa !14
  %65 = getelementptr inbounds nuw %struct.jvp_string, ptr %64, i32 0, i32 0
  store ptr %65, ptr %63, align 8, !tbaa !12
  call void @llvm.lifetime.end.p0(i64 4, ptr %11) #11
  call void @llvm.lifetime.end.p0(i64 8, ptr %10) #11
  call void @llvm.lifetime.end.p0(i64 8, ptr %9) #11
  call void @llvm.lifetime.end.p0(i64 4, ptr %8) #11
  call void @llvm.lifetime.end.p0(i64 8, ptr %7) #11
  call void @llvm.lifetime.end.p0(i64 8, ptr %6) #11
  %66 = load { i64, ptr }, ptr %3, align 8
  ret { i64, ptr } %66
}

; Function Attrs: nounwind uwtable
define internal { i64, ptr } @jvp_string_new(ptr noundef %0, i32 noundef %1) #0 {
  %3 = alloca %struct.jv, align 8
  %4 = alloca ptr, align 8
  %5 = alloca i32, align 4
  %6 = alloca ptr, align 8
  store ptr %0, ptr %4, align 8, !tbaa !30
  store i32 %1, ptr %5, align 4, !tbaa !10
  call void @llvm.lifetime.start.p0(i64 8, ptr %6) #11
  %7 = load i32, ptr %5, align 4, !tbaa !10
  %8 = call ptr @jvp_string_alloc(i32 noundef %7)
  store ptr %8, ptr %6, align 8, !tbaa !14
  %9 = load i32, ptr %5, align 4, !tbaa !10
  %10 = shl i32 %9, 1
  %11 = load ptr, ptr %6, align 8, !tbaa !14
  %12 = getelementptr inbounds nuw %struct.jvp_string, ptr %11, i32 0, i32 2
  store i32 %10, ptr %12, align 4, !tbaa !10
  %13 = load ptr, ptr %4, align 8, !tbaa !30
  %14 = icmp ne ptr %13, null
  br i1 %14, label %15, label %22

15:                                               ; preds = %2
  %16 = load ptr, ptr %6, align 8, !tbaa !14
  %17 = getelementptr inbounds nuw %struct.jvp_string, ptr %16, i32 0, i32 4
  %18 = getelementptr inbounds [0 x i8], ptr %17, i64 0, i64 0
  %19 = load ptr, ptr %4, align 8, !tbaa !30
  %20 = load i32, ptr %5, align 4, !tbaa !10
  %21 = zext i32 %20 to i64
  call void @llvm.memcpy.p0.p0.i64(ptr align 4 %18, ptr align 1 %19, i64 %21, i1 false)
  br label %22

22:                                               ; preds = %15, %2
  %23 = load ptr, ptr %6, align 8, !tbaa !14
  %24 = getelementptr inbounds nuw %struct.jvp_string, ptr %23, i32 0, i32 4
  %25 = load i32, ptr %5, align 4, !tbaa !10
  %26 = zext i32 %25 to i64
  %27 = getelementptr inbounds nuw [0 x i8], ptr %24, i64 0, i64 %26
  store i8 0, ptr %27, align 1, !tbaa !12
  %28 = getelementptr inbounds nuw %struct.jv, ptr %3, i32 0, i32 0
  store i8 -123, ptr %28, align 8, !tbaa !4
  %29 = getelementptr inbounds nuw %struct.jv, ptr %3, i32 0, i32 1
  store i8 0, ptr %29, align 1, !tbaa !17
  %30 = getelementptr inbounds nuw %struct.jv, ptr %3, i32 0, i32 2
  store i16 0, ptr %30, align 2, !tbaa !18
  %31 = getelementptr inbounds nuw %struct.jv, ptr %3, i32 0, i32 3
  store i32 0, ptr %31, align 4, !tbaa !19
  %32 = getelementptr inbounds nuw %struct.jv, ptr %3, i32 0, i32 4
  %33 = load ptr, ptr %6, align 8, !tbaa !14
  %34 = getelementptr inbounds nuw %struct.jvp_string, ptr %33, i32 0, i32 0
  store ptr %34, ptr %32, align 8, !tbaa !12
  call void @llvm.lifetime.end.p0(i64 8, ptr %6) #11
  %35 = load { i64, ptr }, ptr %3, align 8
  ret { i64, ptr } %35
}

; Function Attrs: nounwind uwtable
define dso_local { i64, ptr } @jv_string_sized(ptr noundef %0, i32 noundef %1) #0 {
  %3 = alloca %struct.jv, align 8
  %4 = alloca ptr, align 8
  %5 = alloca i32, align 4
  store ptr %0, ptr %4, align 8, !tbaa !30
  store i32 %1, ptr %5, align 4, !tbaa !10
  %6 = load ptr, ptr %4, align 8, !tbaa !30
  %7 = load ptr, ptr %4, align 8, !tbaa !30
  %8 = load i32, ptr %5, align 4, !tbaa !10
  %9 = sext i32 %8 to i64
  %10 = getelementptr inbounds i8, ptr %7, i64 %9
  %11 = call i32 @jvp_utf8_is_valid(ptr noundef %6, ptr noundef %10)
  %12 = icmp ne i32 %11, 0
  br i1 %12, label %13, label %21

13:                                               ; preds = %2
  %14 = load ptr, ptr %4, align 8, !tbaa !30
  %15 = load i32, ptr %5, align 4, !tbaa !10
  %16 = call { i64, ptr } @jvp_string_new(ptr noundef %14, i32 noundef %15)
  %17 = getelementptr inbounds nuw { i64, ptr }, ptr %3, i32 0, i32 0
  %18 = extractvalue { i64, ptr } %16, 0
  store i64 %18, ptr %17, align 8
  %19 = getelementptr inbounds nuw { i64, ptr }, ptr %3, i32 0, i32 1
  %20 = extractvalue { i64, ptr } %16, 1
  store ptr %20, ptr %19, align 8
  br label %29

21:                                               ; preds = %2
  %22 = load ptr, ptr %4, align 8, !tbaa !30
  %23 = load i32, ptr %5, align 4, !tbaa !10
  %24 = call { i64, ptr } @jvp_string_copy_replace_bad(ptr noundef %22, i32 noundef %23)
  %25 = getelementptr inbounds nuw { i64, ptr }, ptr %3, i32 0, i32 0
  %26 = extractvalue { i64, ptr } %24, 0
  store i64 %26, ptr %25, align 8
  %27 = getelementptr inbounds nuw { i64, ptr }, ptr %3, i32 0, i32 1
  %28 = extractvalue { i64, ptr } %24, 1
  store ptr %28, ptr %27, align 8
  br label %29

29:                                               ; preds = %21, %13
  %30 = load { i64, ptr }, ptr %3, align 8
  ret { i64, ptr } %30
}