; Function Attrs: nounwind uwtable
define dso_local { i64, ptr } @jv_string_sized(ptr noundef %0, i32 noundef %1) local_unnamed_addr #2 {
  %3 = alloca i32, align 4
  %4 = sext i32 %1 to i64
  %5 = getelementptr inbounds i8, ptr %0, i64 %4
  %6 = tail call i32 @jvp_utf8_is_valid(ptr noundef %0, ptr noundef %5) #25
  %.not = icmp eq i32 %6, 0
  %7 = zext i32 %1 to i64
  br i1 %.not, label %18, label %8

8:                                                ; preds = %2
  %9 = add nuw nsw i64 %7, 17
  %10 = tail call noundef ptr @jv_mem_alloc(i64 noundef %9) #25
  store i32 1, ptr %10, align 4, !tbaa !9
  %11 = getelementptr inbounds nuw i8, ptr %10, i64 12
  store i32 %1, ptr %11, align 4, !tbaa !4
  %12 = shl i32 %1, 1
  %13 = getelementptr inbounds nuw i8, ptr %10, i64 8
  store i32 %12, ptr %13, align 4, !tbaa !4
  %.not.i = icmp eq ptr %0, null
  br i1 %.not.i, label %jvp_string_new.exit, label %14

14:                                               ; preds = %8
  %15 = getelementptr inbounds nuw i8, ptr %10, i64 16
  tail call void @llvm.memcpy.p0.p0.i64(ptr nonnull align 4 %15, ptr nonnull readonly align 1 %0, i64 %7, i1 false)
  br label %jvp_string_new.exit

jvp_string_new.exit:                              ; preds = %8, %14
  %16 = getelementptr inbounds nuw i8, ptr %10, i64 16
  %17 = getelementptr inbounds nuw [0 x i8], ptr %16, i64 0, i64 %7
  store i8 0, ptr %17, align 1, !tbaa !8
  br label %46

18:                                               ; preds = %2
  %19 = getelementptr inbounds nuw i8, ptr %0, i64 %7
  %20 = mul i32 %1, 3
  %21 = add i32 %20, 1
  %22 = zext i32 %21 to i64
  %23 = add nuw nsw i64 %22, 17
  %24 = tail call noundef ptr @jv_mem_alloc(i64 noundef %23) #25
  store i32 1, ptr %24, align 4, !tbaa !9
  %25 = getelementptr inbounds nuw i8, ptr %24, i64 12
  store i32 %21, ptr %25, align 4, !tbaa !4
  %26 = getelementptr inbounds nuw i8, ptr %24, i64 16
  call void @llvm.lifetime.start.p0(i64 4, ptr nonnull %3) #25
  store i32 0, ptr %3, align 4, !tbaa !4
  %27 = call ptr @jvp_utf8_next(ptr noundef %0, ptr noundef %19, ptr noundef nonnull %3) #25
  %.not18.i = icmp eq ptr %27, null
  br i1 %.not18.i, label %jvp_string_copy_replace_bad.exit, label %.lr.ph.i

.lr.ph.i:                                         ; preds = %18, %32
  %28 = phi ptr [ %37, %32 ], [ %27, %18 ]
  %.019.i = phi ptr [ %36, %32 ], [ %26, %18 ]
  %29 = load i32, ptr %3, align 4, !tbaa !4
  %30 = icmp eq i32 %29, -1
  br i1 %30, label %31, label %32

31:                                               ; preds = %.lr.ph.i
  store i32 65533, ptr %3, align 4, !tbaa !4
  br label %32

32:                                               ; preds = %31, %.lr.ph.i
  %33 = phi i32 [ 65533, %31 ], [ %29, %.lr.ph.i ]
  %34 = call i32 @jvp_utf8_encode(i32 noundef %33, ptr noundef %.019.i) #25
  %35 = sext i32 %34 to i64
  %36 = getelementptr inbounds i8, ptr %.019.i, i64 %35
  %37 = call ptr @jvp_utf8_next(ptr noundef nonnull %28, ptr noundef %19, ptr noundef nonnull %3) #25
  %.not.i6 = icmp eq ptr %37, null
  br i1 %.not.i6, label %jvp_string_copy_replace_bad.exit, label %.lr.ph.i, !llvm.loop !47

jvp_string_copy_replace_bad.exit:                 ; preds = %32, %18
  %.0.lcssa.i = phi ptr [ %26, %18 ], [ %36, %32 ]
  %38 = ptrtoint ptr %.0.lcssa.i to i64
  %39 = ptrtoint ptr %26 to i64
  %40 = sub i64 %38, %39
  %41 = trunc i64 %40 to i32
  %42 = and i64 %40, 4294967295
  %43 = getelementptr inbounds nuw [0 x i8], ptr %26, i64 0, i64 %42
  store i8 0, ptr %43, align 1, !tbaa !8
  %44 = shl i32 %41, 1
  %45 = getelementptr inbounds nuw i8, ptr %24, i64 8
  store i32 %44, ptr %45, align 4, !tbaa !4
  call void @llvm.lifetime.end.p0(i64 4, ptr nonnull %3) #25
  br label %46

46:                                               ; preds = %jvp_string_copy_replace_bad.exit, %jvp_string_new.exit
  %.pn9 = phi ptr [ %10, %jvp_string_new.exit ], [ %24, %jvp_string_copy_replace_bad.exit ]
  %.fca.1.insert = insertvalue { i64, ptr } { i64 133, ptr undef }, ptr %.pn9, 1
  ret { i64, ptr } %.fca.1.insert
}